target datalayout = "e-m:e-p270:32:32-p271:32:32-p272:64:64-i64:64-i128:128-f80:128-n8:16:32:64-S128"
target triple = "x86_64-pc-linux-gnu"

%struct.pointf_s = type { double, double }

@.str.14 = private unnamed_addr constant [2 x i8] c" \00", align 1
@.str.15 = private unnamed_addr constant [1 x i8] zeroinitializer, align 1

; Function Attrs: nounwind uwtable
define i32 @gvputs(ptr noundef %0, ptr noundef %1) #0 {
  %3 = alloca i32, align 4
  %4 = alloca ptr, align 8
  %5 = alloca ptr, align 8
  %6 = alloca i64, align 8
  %7 = alloca i32, align 4
  store ptr %0, ptr %4, align 8, !tbaa !3
  store ptr %1, ptr %5, align 8, !tbaa !73
  call void @llvm.lifetime.start.p0(i64 8, ptr %6) #14
  %8 = load ptr, ptr %5, align 8, !tbaa !73
  %9 = call i64 @strlen(ptr noundef %8) #16
  store i64 %9, ptr %6, align 8, !tbaa !71
  %10 = load ptr, ptr %4, align 8, !tbaa !3
  %11 = load ptr, ptr %5, align 8, !tbaa !73
  %12 = load i64, ptr %6, align 8, !tbaa !71
  %13 = call i64 @gvwrite(ptr noundef %10, ptr noundef %11, i64 noundef %12)
  %14 = load i64, ptr %6, align 8, !tbaa !71
  %15 = icmp ne i64 %13, %14
  br i1 %15, label %16, label %17

16:                                               ; preds = %2
  store i32 -1, ptr %3, align 4
  store i32 1, ptr %7, align 4
  br label %18

17:                                               ; preds = %2
  store i32 1, ptr %3, align 4
  store i32 1, ptr %7, align 4
  br label %18

18:                                               ; preds = %17, %16
  call void @llvm.lifetime.end.p0(i64 8, ptr %6) #14
  %19 = load i32, ptr %3, align 4
  ret i32 %19
}

; Function Attrs: nounwind uwtable
define void @gvprintpointflist(ptr noundef %0, ptr noundef %1, i64 noundef %2) #0 {
  %4 = alloca ptr, align 8
  %5 = alloca ptr, align 8
  %6 = alloca i64, align 8
  %7 = alloca ptr, align 8
  %8 = alloca i64, align 8
  store ptr %0, ptr %4, align 8, !tbaa !3
  store ptr %1, ptr %5, align 8, !tbaa !96
  store i64 %2, ptr %6, align 8, !tbaa !71
  call void @llvm.lifetime.start.p0(i64 8, ptr %7) #14
  store ptr @.str.15, ptr %7, align 8, !tbaa !73
  call void @llvm.lifetime.start.p0(i64 8, ptr %8) #14
  store i64 0, ptr %8, align 8, !tbaa !71
  br label %9

9:                                                ; preds = %26, %3
  %10 = load i64, ptr %8, align 8, !tbaa !71
  %11 = load i64, ptr %6, align 8, !tbaa !71
  %12 = icmp ult i64 %10, %11
  br i1 %12, label %14, label %13

13:                                               ; preds = %9
  call void @llvm.lifetime.end.p0(i64 8, ptr %8) #14
  br label %29

14:                                               ; preds = %9
  %15 = load ptr, ptr %4, align 8, !tbaa !3
  %16 = load ptr, ptr %7, align 8, !tbaa !73
  %17 = call i32 @gvputs(ptr noundef %15, ptr noundef %16)
  %18 = load ptr, ptr %4, align 8, !tbaa !3
  %19 = load ptr, ptr %5, align 8, !tbaa !96
  %20 = load i64, ptr %8, align 8, !tbaa !71
  %21 = getelementptr inbounds nuw %struct.pointf_s, ptr %19, i64 %20
  %22 = getelementptr inbounds nuw { double, double }, ptr %21, i32 0, i32 0
  %23 = load double, ptr %22, align 8
  %24 = getelementptr inbounds nuw { double, double }, ptr %21, i32 0, i32 1
  %25 = load double, ptr %24, align 8
  call void @gvprintpointf(ptr noundef %18, double %23, double %25)
  store ptr @.str.14, ptr %7, align 8, !tbaa !73
  br label %26

26:                                               ; preds = %14
  %27 = load i64, ptr %8, align 8, !tbaa !71
  %28 = add i64 %27, 1
  store i64 %28, ptr %8, align 8, !tbaa !71
  br label %9, !llvm.loop !98

29:                                               ; preds = %13
  call void @llvm.lifetime.end.p0(i64 8, ptr %7) #14
  ret void
}