; Function Attrs: nounwind uwtable
define void @gvprintpointflist(ptr noundef %0, ptr noundef readonly captures(none) %1, i64 noundef %2) local_unnamed_addr #0 {
  %.not = icmp eq i64 %2, 0
  br i1 %.not, label %._crit_edge, label %.lr.ph

._crit_edge:                                      ; preds = %.lr.ph, %3
  ret void

.lr.ph:                                           ; preds = %3, %.lr.ph
  %.09 = phi i64 [ %10, %.lr.ph ], [ 0, %3 ]
  %.078 = phi ptr [ @.str.14, %.lr.ph ], [ @.str.15, %3 ]
  %4 = tail call i64 @strlen(ptr noundef nonnull dereferenceable(1) %.078) #22
  %5 = tail call i64 @gvwrite(ptr noundef %0, ptr noundef nonnull %.078, i64 noundef %4)
  %6 = getelementptr inbounds nuw %struct.pointf_s, ptr %1, i64 %.09
  %7 = load double, ptr %6, align 8
  %8 = getelementptr inbounds nuw i8, ptr %6, i64 8
  %9 = load double, ptr %8, align 8
  tail call void @gvprintpointf(ptr noundef %0, double %7, double %9)
  %10 = add nuw i64 %.09, 1
  %exitcond.not = icmp eq i64 %10, %2
  br i1 %exitcond.not, label %._crit_edge, label %.lr.ph, !llvm.loop !81
}